; Function Attrs: nounwind uwtable
define internal i32 @drsuapi_dissect_element_DsGetNT4ChangeLog_req_(ptr noundef %0, i32 noundef %1, ptr noundef %2, ptr noundef %3, ptr noundef %4, ptr noundef %5) #0 {
  %7 = alloca ptr, align 8
  %8 = alloca i32, align 4
  %9 = load i32, ptr @hf_drsuapi_drsuapi_DsGetNT4ChangeLog_req, align 4
  call void @llvm.lifetime.start.p0(i64 8, ptr nonnull %7)
  call void @llvm.lifetime.start.p0(i64 4, ptr nonnull %8)
  store ptr null, ptr %7, align 8
  %.not.i = icmp eq ptr %3, null
  br i1 %.not.i, label %13, label %10

10:                                               ; preds = %6
  %11 = load i32, ptr @ett_drsuapi_drsuapi_DsGetNT4ChangeLogRequest, align 4
  %12 = call ptr @proto_tree_add_subtree(ptr noundef nonnull %3, ptr noundef %0, i32 noundef %1, i32 noundef -1, i32 noundef %11, ptr noundef nonnull %7, ptr noundef nonnull @.str.1749) #5
  br label %13

13:                                               ; preds = %10, %6
  %.027.i = phi ptr [ %12, %10 ], [ null, %6 ]
  %14 = call i32 @dissect_ndr_uint32(ptr noundef %0, i32 noundef %1, ptr noundef %2, ptr noundef %.027.i, ptr noundef %4, ptr noundef %5, i32 noundef %9, ptr noundef nonnull %8) #5
  %15 = getelementptr inbounds nuw i8, ptr %4, i64 72
  %16 = load ptr, ptr %15, align 8
  %17 = getelementptr inbounds nuw i8, ptr %16, i64 96
  %18 = load i32, ptr %17, align 8
  %19 = and i32 %18, 1
  %.not29.i = icmp eq i32 %19, 0
  %20 = getelementptr inbounds nuw i8, ptr %4, i64 28
  %21 = load i32, ptr %20, align 4
  %.not30.i = icmp ne i32 %21, 0
  br i1 %.not29.i, label %27, label %22

22:                                               ; preds = %13
  %23 = and i32 %14, 7
  %.not33.i = icmp eq i32 %23, 0
  %or.cond.i = select i1 %.not30.i, i1 true, i1 %.not33.i
  br i1 %or.cond.i, label %32, label %24

24:                                               ; preds = %22
  %25 = and i32 %14, -8
  %26 = add i32 %25, 8
  br label %32

27:                                               ; preds = %13
  %28 = and i32 %14, 3
  %.not31.i = icmp eq i32 %28, 0
  %or.cond34.i = select i1 %.not30.i, i1 true, i1 %.not31.i
  br i1 %or.cond34.i, label %32, label %29

29:                                               ; preds = %27
  %30 = and i32 %14, -4
  %31 = add i32 %30, 4
  br label %32

32:                                               ; preds = %29, %27, %24, %22
  %.0.i = phi i32 [ %14, %22 ], [ %26, %24 ], [ %14, %27 ], [ %31, %29 ]
  %33 = load i32, ptr %8, align 4
  %cond.i = icmp eq i32 %33, 1
  br i1 %cond.i, label %34, label %drsuapi_dissect_DsGetNT4ChangeLogRequest.exit

34:                                               ; preds = %32
  %35 = load i32, ptr @hf_drsuapi_drsuapi_DsGetNT4ChangeLogRequest_req1, align 4
  %36 = call i32 @drsuapi_dissect_struct_DsGetNT4ChangeLogRequest1(ptr noundef %0, i32 noundef %.0.i, ptr noundef %2, ptr noundef %.027.i, ptr noundef nonnull %4, ptr noundef %5, i32 noundef %35, i32 poison)
  br label %drsuapi_dissect_DsGetNT4ChangeLogRequest.exit

drsuapi_dissect_DsGetNT4ChangeLogRequest.exit:    ; preds = %32, %34
  %.1.i = phi i32 [ %36, %34 ], [ %.0.i, %32 ]
  %37 = load ptr, ptr %7, align 8
  %38 = sub i32 %.1.i, %1
  call void @proto_item_set_len(ptr noundef %37, i32 noundef %38) #5
  call void @llvm.lifetime.end.p0(i64 8, ptr nonnull %7)
  call void @llvm.lifetime.end.p0(i64 4, ptr nonnull %8)
  ret i32 %.1.i
}